target datalayout = "e-m:e-p270:32:32-p271:32:32-p272:64:64-i64:64-i128:128-f80:128-n8:16:32:64-S128"
target triple = "x86_64-pc-linux-gnu"

%struct.UConverter = type { ptr, ptr, ptr, ptr, ptr, ptr, ptr, i32, i8, i8, i8, i8, i8, [7 x i8], i32, i32, i32, i32, i8, i8, i8, i8, i8, i8, i8, i8, [8 x i8], [32 x i8], [2 x i16], [2 x i16], [32 x i16], i32, [19 x i16], [31 x i8], i8, i8, i8, i32 }

@.str.11 = private unnamed_addr constant [1 x i8] zeroinitializer, align 1

; Function Attrs: inlinehint mustprogress nounwind uwtable
define internal noundef signext i8 @_ZL9U_FAILURE10UErrorCode(i32 noundef %0) #2 {
  %2 = alloca i32, align 4
  store i32 %0, ptr %2, align 4, !tbaa !9
  %3 = load i32, ptr %2, align 4, !tbaa !9
  %4 = icmp sgt i32 %3, 0
  %5 = zext i1 %4 to i8
  ret i8 %5
}

; Function Attrs: mustprogress uwtable
define internal noundef i32 @_ZL23ucnv_convertAlgorithmica14UConverterTypeP10UConverterPciPKciP10UErrorCode(i8 noundef signext %0, i32 noundef %1, ptr noundef %2, ptr noundef %3, i32 noundef %4, ptr noundef %5, i32 noundef %6, ptr noundef %7) #0 {
  %9 = alloca i32, align 4
  %10 = alloca i8, align 1
  %11 = alloca i32, align 4
  %12 = alloca ptr, align 8
  %13 = alloca ptr, align 8
  %14 = alloca i32, align 4
  %15 = alloca ptr, align 8
  %16 = alloca i32, align 4
  %17 = alloca ptr, align 8
  %18 = alloca %struct.UConverter, align 8
  %19 = alloca ptr, align 8
  %20 = alloca ptr, align 8
  %21 = alloca ptr, align 8
  %22 = alloca i32, align 4
  %23 = alloca i32, align 4
  store i8 %0, ptr %10, align 1, !tbaa !19
  store i32 %1, ptr %11, align 4, !tbaa !125
  store ptr %2, ptr %12, align 8, !tbaa !11
  store ptr %3, ptr %13, align 8, !tbaa !3
  store i32 %4, ptr %14, align 4, !tbaa !15
  store ptr %5, ptr %15, align 8, !tbaa !3
  store i32 %6, ptr %16, align 4, !tbaa !15
  store ptr %7, ptr %17, align 8, !tbaa !8
  call void @llvm.lifetime.start.p0(i64 288, ptr %18) #11
  call void @llvm.lifetime.start.p0(i64 8, ptr %19) #11
  call void @llvm.lifetime.start.p0(i64 8, ptr %20) #11
  call void @llvm.lifetime.start.p0(i64 8, ptr %21) #11
  call void @llvm.lifetime.start.p0(i64 4, ptr %22) #11
  %24 = load ptr, ptr %17, align 8, !tbaa !8
  %25 = icmp eq ptr %24, null
  br i1 %25, label %31, label %26

26:                                               ; preds = %8
  %27 = load ptr, ptr %17, align 8, !tbaa !8
  %28 = load i32, ptr %27, align 4, !tbaa !9
  %29 = call noundef signext i8 @_ZL9U_FAILURE10UErrorCode(i32 noundef %28)
  %30 = icmp ne i8 %29, 0
  br i1 %30, label %31, label %32

31:                                               ; preds = %26, %8
  store i32 0, ptr %9, align 4
  store i32 1, ptr %23, align 4
  br label %99

32:                                               ; preds = %26
  %33 = load ptr, ptr %12, align 8, !tbaa !11
  %34 = icmp eq ptr %33, null
  br i1 %34, label %50, label %35

35:                                               ; preds = %32
  %36 = load ptr, ptr %15, align 8, !tbaa !3
  %37 = icmp eq ptr %36, null
  br i1 %37, label %50, label %38

38:                                               ; preds = %35
  %39 = load i32, ptr %16, align 4, !tbaa !15
  %40 = icmp slt i32 %39, -1
  br i1 %40, label %50, label %41

41:                                               ; preds = %38
  %42 = load i32, ptr %14, align 4, !tbaa !15
  %43 = icmp slt i32 %42, 0
  br i1 %43, label %50, label %44

44:                                               ; preds = %41
  %45 = load i32, ptr %14, align 4, !tbaa !15
  %46 = icmp sgt i32 %45, 0
  br i1 %46, label %47, label %52

47:                                               ; preds = %44
  %48 = load ptr, ptr %13, align 8, !tbaa !3
  %49 = icmp eq ptr %48, null
  br i1 %49, label %50, label %52

50:                                               ; preds = %47, %41, %38, %35, %32
  %51 = load ptr, ptr %17, align 8, !tbaa !8
  store i32 1, ptr %51, align 4, !tbaa !9
  store i32 0, ptr %9, align 4
  store i32 1, ptr %23, align 4
  br label %99

52:                                               ; preds = %47, %44
  %53 = load i32, ptr %16, align 4, !tbaa !15
  %54 = icmp eq i32 %53, 0
  br i1 %54, label %63, label %55

55:                                               ; preds = %52
  %56 = load i32, ptr %16, align 4, !tbaa !15
  %57 = icmp slt i32 %56, 0
  br i1 %57, label %58, label %68

58:                                               ; preds = %55
  %59 = load ptr, ptr %15, align 8, !tbaa !3
  %60 = load i8, ptr %59, align 1, !tbaa !19
  %61 = sext i8 %60 to i32
  %62 = icmp eq i32 %61, 0
  br i1 %62, label %63, label %68

63:                                               ; preds = %58, %52
  %64 = load ptr, ptr %13, align 8, !tbaa !3
  %65 = load i32, ptr %14, align 4, !tbaa !15
  %66 = load ptr, ptr %17, align 8, !tbaa !8
  %67 = call i32 @u_terminateChars_77(ptr noundef %64, i32 noundef %65, i32 noundef 0, ptr noundef %66)
  store i32 %67, ptr %9, align 4
  store i32 1, ptr %23, align 4
  br label %99

68:                                               ; preds = %58, %55
  %69 = load i32, ptr %11, align 4, !tbaa !125
  %70 = load ptr, ptr %17, align 8, !tbaa !8
  %71 = call ptr @ucnv_createAlgorithmicConverter_77(ptr noundef %18, i32 noundef %69, ptr noundef @.str.11, i32 noundef 0, ptr noundef %70)
  store ptr %71, ptr %19, align 8, !tbaa !11
  %72 = load ptr, ptr %17, align 8, !tbaa !8
  %73 = load i32, ptr %72, align 4, !tbaa !9
  %74 = call noundef signext i8 @_ZL9U_FAILURE10UErrorCode(i32 noundef %73)
  %75 = icmp ne i8 %74, 0
  br i1 %75, label %76, label %77

76:                                               ; preds = %68
  store i32 0, ptr %9, align 4
  store i32 1, ptr %23, align 4
  br label %99

77:                                               ; preds = %68
  %78 = load i8, ptr %10, align 1, !tbaa !19
  %79 = icmp ne i8 %78, 0
  br i1 %79, label %80, label %84

80:                                               ; preds = %77
  %81 = load ptr, ptr %12, align 8, !tbaa !11
  call void @ucnv_resetToUnicode_77(ptr noundef %81)
  %82 = load ptr, ptr %19, align 8, !tbaa !11
  store ptr %82, ptr %20, align 8, !tbaa !11
  %83 = load ptr, ptr %12, align 8, !tbaa !11
  store ptr %83, ptr %21, align 8, !tbaa !11
  br label %88

84:                                               ; preds = %77
  %85 = load ptr, ptr %12, align 8, !tbaa !11
  call void @ucnv_resetFromUnicode_77(ptr noundef %85)
  %86 = load ptr, ptr %19, align 8, !tbaa !11
  store ptr %86, ptr %21, align 8, !tbaa !11
  %87 = load ptr, ptr %12, align 8, !tbaa !11
  store ptr %87, ptr %20, align 8, !tbaa !11
  br label %88

88:                                               ; preds = %84, %80
  %89 = load ptr, ptr %20, align 8, !tbaa !11
  %90 = load ptr, ptr %21, align 8, !tbaa !11
  %91 = load ptr, ptr %13, align 8, !tbaa !3
  %92 = load i32, ptr %14, align 4, !tbaa !15
  %93 = load ptr, ptr %15, align 8, !tbaa !3
  %94 = load i32, ptr %16, align 4, !tbaa !15
  %95 = load ptr, ptr %17, align 8, !tbaa !8
  %96 = call noundef i32 @_ZL20ucnv_internalConvertP10UConverterS0_PciPKciP10UErrorCode(ptr noundef %89, ptr noundef %90, ptr noundef %91, i32 noundef %92, ptr noundef %93, i32 noundef %94, ptr noundef %95)
  store i32 %96, ptr %22, align 4, !tbaa !15
  %97 = load ptr, ptr %19, align 8, !tbaa !11
  call void @ucnv_close_77(ptr noundef %97)
  %98 = load i32, ptr %22, align 4, !tbaa !15
  store i32 %98, ptr %9, align 4
  store i32 1, ptr %23, align 4
  br label %99

99:                                               ; preds = %88, %76, %63, %50, %31
  call void @llvm.lifetime.end.p0(i64 4, ptr %22) #11
  call void @llvm.lifetime.end.p0(i64 8, ptr %21) #11
  call void @llvm.lifetime.end.p0(i64 8, ptr %20) #11
  call void @llvm.lifetime.end.p0(i64 8, ptr %19) #11
  call void @llvm.lifetime.end.p0(i64 288, ptr %18) #11
  %100 = load i32, ptr %9, align 4
  ret i32 %100
}