; Function Attrs: mustprogress uwtable
define internal fastcc noundef i32 @_ZL23ucnv_convertAlgorithmica14UConverterTypeP10UConverterPciPKciP10UErrorCode(i8 noundef signext range(i8 0, 2) %0, i32 noundef %1, ptr noundef %2, ptr noundef %3, i32 noundef %4, ptr noundef %5, i32 noundef %6, ptr noundef %7) unnamed_addr #0 {
  %9 = alloca %struct.UConverter, align 8
  call void @llvm.lifetime.start.p0(i64 288, ptr nonnull %9) #16
  %10 = icmp eq ptr %7, null
  br i1 %10, label %41, label %11

11:                                               ; preds = %8
  %12 = load i32, ptr %7, align 4, !tbaa !3
  %13 = icmp slt i32 %12, 1
  br i1 %13, label %14, label %41

14:                                               ; preds = %11
  %15 = icmp eq ptr %2, null
  %16 = icmp eq ptr %5, null
  %or.cond = or i1 %15, %16
  %17 = icmp slt i32 %6, -1
  %or.cond3 = or i1 %or.cond, %17
  %18 = icmp slt i32 %4, 0
  %or.cond5 = or i1 %18, %or.cond3
  br i1 %or.cond5, label %22, label %19

19:                                               ; preds = %14
  %20 = icmp ne i32 %4, 0
  %21 = icmp eq ptr %3, null
  %or.cond7 = and i1 %21, %20
  br i1 %or.cond7, label %22, label %23

22:                                               ; preds = %19, %14
  store i32 1, ptr %7, align 4, !tbaa !3
  br label %41

23:                                               ; preds = %19
  %24 = icmp eq i32 %6, 0
  br i1 %24, label %30, label %25

25:                                               ; preds = %23
  %26 = icmp slt i32 %6, 0
  br i1 %26, label %27, label %32

27:                                               ; preds = %25
  %28 = load i8, ptr %5, align 1, !tbaa !7
  %29 = icmp eq i8 %28, 0
  br i1 %29, label %30, label %32

30:                                               ; preds = %27, %23
  %31 = tail call i32 @u_terminateChars_77(ptr noundef %3, i32 noundef %4, i32 noundef 0, ptr noundef nonnull %7)
  br label %41

32:                                               ; preds = %27, %25
  %33 = call ptr @ucnv_createAlgorithmicConverter_77(ptr noundef nonnull %9, i32 noundef %1, ptr noundef nonnull @.str.11, i32 noundef 0, ptr noundef nonnull %7)
  %34 = load i32, ptr %7, align 4, !tbaa !3
  %35 = icmp slt i32 %34, 1
  br i1 %35, label %36, label %41

36:                                               ; preds = %32
  %.not49 = icmp eq i8 %0, 0
  br i1 %.not49, label %38, label %37

37:                                               ; preds = %36
  call void @ucnv_resetToUnicode_77(ptr noundef nonnull %2)
  br label %39

38:                                               ; preds = %36
  call void @ucnv_resetFromUnicode_77(ptr noundef nonnull %2)
  br label %39

39:                                               ; preds = %38, %37
  %.042 = phi ptr [ %33, %37 ], [ %2, %38 ]
  %.041 = phi ptr [ %2, %37 ], [ %33, %38 ]
  %40 = call fastcc noundef i32 @_ZL20ucnv_internalConvertP10UConverterS0_PciPKciP10UErrorCode(ptr noundef %.042, ptr noundef %.041, ptr noundef %3, i32 noundef %4, ptr noundef %5, i32 noundef %6, ptr noundef %7)
  call void @ucnv_close_77(ptr noundef %33)
  br label %41

41:                                               ; preds = %32, %8, %11, %39, %30, %22
  %.0 = phi i32 [ 0, %22 ], [ %31, %30 ], [ %40, %39 ], [ 0, %11 ], [ 0, %8 ], [ 0, %32 ]
  call void @llvm.lifetime.end.p0(i64 288, ptr nonnull %9) #16
  ret i32 %.0
}